target datalayout = "e-m:e-p270:32:32-p271:32:32-p272:64:64-i64:64-i128:128-f80:128-n8:16:32:64-S128"
target triple = "x86_64-pc-linux-gnu"

%class.QCursor = type { ptr }
%class.QEvent = type <{ ptr, ptr, i16, i16, [4 x i8] }>

; Function Attrs: mustprogress nounwind uwtable
define linkonce_odr void @_ZN6QEvent6ignoreEv(ptr noundef nonnull align 8 dereferenceable(20) %0) #2 comdat align 2 {
  %2 = alloca ptr, align 8
  store ptr %0, ptr %2, align 8
  %3 = load ptr, ptr %2, align 8
  %4 = getelementptr inbounds %class.QEvent, ptr %3, i32 0, i32 3
  %5 = load i16, ptr %4, align 2
  %6 = and i16 %5, -5
  %7 = or i16 %6, 0
  store i16 %7, ptr %4, align 2
  ret void
}

; Function Attrs: mustprogress uwtable
define void @_ZN6Handle15mousePressEventEP24QGraphicsSceneMouseEvent(ptr noundef nonnull align 8 dereferenceable(64) %0, ptr noundef %1) unnamed_addr #0 align 2 personality ptr @__gxx_personality_v0 {
  %3 = alloca ptr, align 8
  %4 = alloca ptr, align 8
  %5 = alloca %class.QCursor, align 8
  %6 = alloca ptr, align 8
  %7 = alloca i32, align 4
  store ptr %0, ptr %3, align 8
  store ptr %1, ptr %4, align 8
  %8 = load ptr, ptr %3, align 8
  %9 = load ptr, ptr %4, align 8
  %10 = call noundef i32 @_ZNK24QGraphicsSceneMouseEvent6buttonEv(ptr noundef nonnull align 8 dereferenceable(32) %9)
  %11 = icmp ne i32 %10, 1
  br i1 %11, label %12, label %14

12:                                               ; preds = %2
  %13 = load ptr, ptr %4, align 8
  call void @_ZN6QEvent6ignoreEv(ptr noundef nonnull align 8 dereferenceable(20) %13)
  br label %17

14:                                               ; preds = %2
  %15 = getelementptr inbounds i8, ptr %8, i64 16
  call void @_ZN7QCursorC1EN2Qt11CursorShapeE(ptr noundef nonnull align 8 dereferenceable(8) %5, i32 noundef 18)
  invoke void @_ZN13QGraphicsItem9setCursorERK7QCursor(ptr noundef nonnull align 8 dereferenceable(16) %15, ptr noundef nonnull align 8 dereferenceable(8) %5)
          to label %16 unwind label %18

16:                                               ; preds = %14
  call void @_ZN7QCursorD1Ev(ptr noundef nonnull align 8 dereferenceable(8) %5) #7
  br label %17

17:                                               ; preds = %16, %12
  ret void

18:                                               ; preds = %14
  %19 = landingpad { ptr, i32 }
          cleanup
  %20 = extractvalue { ptr, i32 } %19, 0
  store ptr %20, ptr %6, align 8
  %21 = extractvalue { ptr, i32 } %19, 1
  store i32 %21, ptr %7, align 4
  call void @_ZN7QCursorD1Ev(ptr noundef nonnull align 8 dereferenceable(8) %5) #7
  br label %22

22:                                               ; preds = %18
  %23 = load ptr, ptr %6, align 8
  %24 = load i32, ptr %7, align 4
  %25 = insertvalue { ptr, i32 } poison, ptr %23, 0
  %26 = insertvalue { ptr, i32 } %25, i32 %24, 1
  resume { ptr, i32 } %26
}

; Function Attrs: uwtable
define void @_ZThn16_N6Handle15mousePressEventEP24QGraphicsSceneMouseEvent(ptr noundef %0, ptr noundef %1) unnamed_addr #6 align 2 {
  %3 = alloca ptr, align 8
  %4 = alloca ptr, align 8
  store ptr %0, ptr %3, align 8
  store ptr %1, ptr %4, align 8
  %5 = load ptr, ptr %3, align 8
  %6 = getelementptr inbounds i8, ptr %5, i64 -16
  %7 = load ptr, ptr %4, align 8
  tail call void @_ZN6Handle15mousePressEventEP24QGraphicsSceneMouseEvent(ptr noundef nonnull align 8 dereferenceable(64) %6, ptr noundef %7)
  ret void
}