; Function Attrs: uwtable
define void @_ZThn16_N6Handle15mousePressEventEP24QGraphicsSceneMouseEvent(ptr noundef %0, ptr noundef nonnull %1) unnamed_addr #10 align 2 personality ptr @__gxx_personality_v0 {
  %3 = alloca %class.QCursor, align 8
  call void @llvm.lifetime.start.p0(i64 8, ptr nonnull %3)
  %4 = tail call noundef i32 @_ZNK24QGraphicsSceneMouseEvent6buttonEv(ptr noundef nonnull align 8 dereferenceable(32) %1)
  %.not.i = icmp eq i32 %4, 1
  br i1 %.not.i, label %9, label %5

5:                                                ; preds = %2
  %6 = getelementptr inbounds i8, ptr %1, i64 18
  %7 = load i16, ptr %6, align 2
  %8 = and i16 %7, -5
  store i16 %8, ptr %6, align 2
  br label %_ZN6Handle15mousePressEventEP24QGraphicsSceneMouseEvent.exit

9:                                                ; preds = %2
  call void @_ZN7QCursorC1EN2Qt11CursorShapeE(ptr noundef nonnull align 8 dereferenceable(8) %3, i32 noundef 18)
  invoke void @_ZN13QGraphicsItem9setCursorERK7QCursor(ptr noundef nonnull align 8 dereferenceable(16) %0, ptr noundef nonnull align 8 dereferenceable(8) %3)
          to label %10 unwind label %11

10:                                               ; preds = %9
  call void @_ZN7QCursorD1Ev(ptr noundef nonnull align 8 dereferenceable(8) %3) #13
  br label %_ZN6Handle15mousePressEventEP24QGraphicsSceneMouseEvent.exit

11:                                               ; preds = %9
  %12 = landingpad { ptr, i32 }
          cleanup
  call void @_ZN7QCursorD1Ev(ptr noundef nonnull align 8 dereferenceable(8) %3) #13
  resume { ptr, i32 } %12

_ZN6Handle15mousePressEventEP24QGraphicsSceneMouseEvent.exit: ; preds = %5, %10
  call void @llvm.lifetime.end.p0(i64 8, ptr nonnull %3)
  ret void
}